target datalayout = "e-m:e-p270:32:32-p271:32:32-p272:64:64-i64:64-i128:128-f80:128-n8:16:32:64-S128"
target triple = "x86_64-pc-linux-gnu"

@lv_obj_class = constant { ptr, ptr, ptr, ptr, ptr, ptr, i32, i32, i8, i8, i8, [5 x i8] } { ptr null, ptr @lv_obj_constructor, ptr @lv_obj_destructor, ptr @lv_obj_event, ptr null, ptr @.str, i32 130, i32 130, i8 10, i8 4, i8 0, [5 x i8] zeroinitializer }, align 8

; Function Attrs: nounwind uwtable
define ptr @lv_obj_create(ptr noundef %0) #0 {
  %2 = alloca ptr, align 8
  %3 = alloca ptr, align 8
  %4 = alloca ptr, align 8
  %5 = alloca i32, align 4
  store ptr %0, ptr %3, align 8, !tbaa !8
  br label %6

6:                                                ; preds = %1
  br label %7

7:                                                ; preds = %6
  call void @llvm.lifetime.start.p0(i64 8, ptr %4) #5
  %8 = load ptr, ptr %3, align 8, !tbaa !8
  %9 = call ptr @lv_obj_class_create_obj(ptr noundef @lv_obj_class, ptr noundef %8)
  store ptr %9, ptr %4, align 8, !tbaa !8
  br label %10

10:                                               ; preds = %7
  %11 = load ptr, ptr %4, align 8, !tbaa !8
  %12 = icmp ne ptr %11, null
  br i1 %12, label %19, label %13

13:                                               ; preds = %10
  br label %14

14:                                               ; preds = %13
  br label %15

15:                                               ; preds = %14
  br label %16

16:                                               ; preds = %15
  br label %17

17:                                               ; preds = %18, %16
  br label %18

18:                                               ; preds = %17
  br label %17

19:                                               ; preds = %10
  br label %20

20:                                               ; preds = %19
  br label %21

21:                                               ; preds = %20
  %22 = load ptr, ptr %4, align 8, !tbaa !8
  %23 = icmp eq ptr %22, null
  br i1 %23, label %24, label %25

24:                                               ; preds = %21
  store ptr null, ptr %2, align 8
  store i32 1, ptr %5, align 4
  br label %28

25:                                               ; preds = %21
  %26 = load ptr, ptr %4, align 8, !tbaa !8
  call void @lv_obj_class_init_obj(ptr noundef %26)
  %27 = load ptr, ptr %4, align 8, !tbaa !8
  store ptr %27, ptr %2, align 8
  store i32 1, ptr %5, align 4
  br label %28

28:                                               ; preds = %25, %24
  call void @llvm.lifetime.end.p0(i64 8, ptr %4) #5
  %29 = load ptr, ptr %2, align 8
  ret ptr %29
}