; Function Attrs: nounwind uwtable
define nonnull ptr @lv_obj_create(ptr noundef %0) local_unnamed_addr #0 {
  %2 = tail call ptr @lv_obj_class_create_obj(ptr noundef nonnull @lv_obj_class, ptr noundef %0) #8
  %.not = icmp eq ptr %2, null
  br i1 %.not, label %.preheader, label %3

.preheader:                                       ; preds = %1, %.preheader
  br label %.preheader

3:                                                ; preds = %1
  tail call void @lv_obj_class_init_obj(ptr noundef nonnull %2) #8
  ret ptr %2
}